target datalayout = "e-m:e-p270:32:32-p271:32:32-p272:64:64-i64:64-i128:128-f80:128-n8:16:32:64-S128"
target triple = "x86_64-pc-linux-gnu"

%struct._php_stream_bucket_brigade = type { ptr, ptr }
%struct._php_stream_bucket = type { ptr, ptr, ptr, ptr, i64, i8, i8, i32 }

@rot13_from = internal constant [53 x i8] c"abcdefghijklmnopqrstuvwxyzABCDEFGHIJKLMNOPQRSTUVWXYZ\00", align 16
@rot13_to = internal constant [53 x i8] c"nopqrstuvwxyzabcdefghijklmNOPQRSTUVWXYZABCDEFGHIJKLM\00", align 16

; Function Attrs: nounwind uwtable
define internal i32 @strfilter_rot13_filter(ptr noundef %0, ptr noundef %1, ptr noundef %2, ptr noundef %3, ptr noundef %4, i32 noundef %5) #0 {
  %7 = alloca ptr, align 8
  %8 = alloca ptr, align 8
  %9 = alloca ptr, align 8
  %10 = alloca ptr, align 8
  %11 = alloca ptr, align 8
  %12 = alloca i32, align 4
  %13 = alloca ptr, align 8
  %14 = alloca i64, align 8
  store ptr %0, ptr %7, align 8
  store ptr %1, ptr %8, align 8
  store ptr %2, ptr %9, align 8
  store ptr %3, ptr %10, align 8
  store ptr %4, ptr %11, align 8
  store i32 %5, ptr %12, align 4
  store i64 0, ptr %14, align 8
  br label %15

15:                                               ; preds = %20, %6
  %16 = load ptr, ptr %9, align 8
  %17 = getelementptr inbounds %struct._php_stream_bucket_brigade, ptr %16, i32 0, i32 0
  %18 = load ptr, ptr %17, align 8
  %19 = icmp ne ptr %18, null
  br i1 %19, label %20, label %39

20:                                               ; preds = %15
  %21 = load ptr, ptr %9, align 8
  %22 = getelementptr inbounds %struct._php_stream_bucket_brigade, ptr %21, i32 0, i32 0
  %23 = load ptr, ptr %22, align 8
  %24 = call ptr @php_stream_bucket_make_writeable(ptr noundef %23)
  store ptr %24, ptr %13, align 8
  %25 = load ptr, ptr %13, align 8
  %26 = getelementptr inbounds %struct._php_stream_bucket, ptr %25, i32 0, i32 3
  %27 = load ptr, ptr %26, align 8
  %28 = load ptr, ptr %13, align 8
  %29 = getelementptr inbounds %struct._php_stream_bucket, ptr %28, i32 0, i32 4
  %30 = load i64, ptr %29, align 8
  %31 = call ptr @php_strtr(ptr noundef %27, i64 noundef %30, ptr noundef @rot13_from, ptr noundef @rot13_to, i64 noundef 52)
  %32 = load ptr, ptr %13, align 8
  %33 = getelementptr inbounds %struct._php_stream_bucket, ptr %32, i32 0, i32 4
  %34 = load i64, ptr %33, align 8
  %35 = load i64, ptr %14, align 8
  %36 = add i64 %35, %34
  store i64 %36, ptr %14, align 8
  %37 = load ptr, ptr %10, align 8
  %38 = load ptr, ptr %13, align 8
  call void @php_stream_bucket_append(ptr noundef %37, ptr noundef %38)
  br label %15

39:                                               ; preds = %15
  %40 = load ptr, ptr %11, align 8
  %41 = icmp ne ptr %40, null
  br i1 %41, label %42, label %45

42:                                               ; preds = %39
  %43 = load i64, ptr %14, align 8
  %44 = load ptr, ptr %11, align 8
  store i64 %43, ptr %44, align 8
  br label %45

45:                                               ; preds = %42, %39
  ret i32 2
}